target datalayout = "e-m:e-p270:32:32-p271:32:32-p272:64:64-i64:64-i128:128-f80:128-n8:16:32:64-S128"
target triple = "x86_64-pc-linux-gnu"

%"class.Eigen::Matrix" = type { %"class.Eigen::PlainObjectBase" }
%"class.Eigen::PlainObjectBase" = type { %"class.Eigen::DenseStorage" }
%"class.Eigen::DenseStorage" = type { %"struct.Eigen::internal::plain_array" }
%"struct.Eigen::internal::plain_array" = type { [3 x i32] }
%"class.open3d::pipelines::integration::UniformTSDFVolume" = type { %"class.open3d::pipelines::integration::TSDFVolume.base", %"class.std::vector", %"class.Eigen::Matrix.16", double, i32, i32 }
%"class.open3d::pipelines::integration::TSDFVolume.base" = type <{ ptr, double, double, i32 }>
%"class.std::vector" = type { %"struct.std::_Vector_base" }
%"struct.std::_Vector_base" = type { %"struct.std::_Vector_base<open3d::geometry::TSDFVoxel, std::allocator<open3d::geometry::TSDFVoxel>>::_Vector_impl" }
%"struct.std::_Vector_base<open3d::geometry::TSDFVoxel, std::allocator<open3d::geometry::TSDFVoxel>>::_Vector_impl" = type { %"struct.std::_Vector_base<open3d::geometry::TSDFVoxel, std::allocator<open3d::geometry::TSDFVoxel>>::_Vector_impl_data" }
%"struct.std::_Vector_base<open3d::geometry::TSDFVoxel, std::allocator<open3d::geometry::TSDFVoxel>>::_Vector_impl_data" = type { ptr, ptr, ptr }
%"class.Eigen::Matrix.16" = type { %"class.Eigen::PlainObjectBase.17" }
%"class.Eigen::PlainObjectBase.17" = type { %"class.Eigen::DenseStorage.24" }
%"class.Eigen::DenseStorage.24" = type { %"struct.Eigen::internal::plain_array.25" }
%"struct.Eigen::internal::plain_array.25" = type { [3 x double] }
%"class.open3d::geometry::TSDFVoxel" = type { %"class.open3d::geometry::Voxel", float, float }
%"class.open3d::geometry::Voxel" = type { %"class.Eigen::Matrix", %"class.Eigen::Matrix.16" }

; Function Attrs: mustprogress nounwind ssp uwtable
define linkonce_odr void @_ZN6open3d8geometry5VoxelD2Ev(ptr noundef nonnull align 8 dereferenceable(40) %0) unnamed_addr #0 comdat align 2 {
  %2 = alloca ptr, align 8
  store ptr %0, ptr %2, align 8, !tbaa !178
  ret void
}

; Function Attrs: mustprogress nounwind ssp uwtable
define linkonce_odr void @_ZNSt15__new_allocatorIN6open3d8geometry9TSDFVoxelEE10deallocateEPS2_m(ptr noundef nonnull align 1 dereferenceable(1) %0, ptr noundef %1, i64 noundef %2) #0 comdat align 2 {
  %4 = alloca ptr, align 8
  %5 = alloca ptr, align 8
  %6 = alloca i64, align 8
  store ptr %0, ptr %4, align 8, !tbaa !152
  store ptr %1, ptr %5, align 8, !tbaa !162
  store i64 %2, ptr %6, align 8, !tbaa !140
  %7 = load ptr, ptr %5, align 8, !tbaa !162
  %8 = load i64, ptr %6, align 8, !tbaa !140
  %9 = mul i64 %8, 48
  call void @_ZdlPvm(ptr noundef %7, i64 noundef %9) #33
  ret void
}

; Function Attrs: inlinehint mustprogress nounwind ssp uwtable
define linkonce_odr void @_ZSt8_DestroyIN6open3d8geometry9TSDFVoxelEEvPT_(ptr noundef %0) #10 comdat {
  %2 = alloca ptr, align 8
  store ptr %0, ptr %2, align 8, !tbaa !162
  %3 = load ptr, ptr %2, align 8, !tbaa !162
  call void @_ZN6open3d8geometry5VoxelD2Ev(ptr noundef nonnull align 8 dereferenceable(48) %3) #32
  ret void
}

; Function Attrs: alwaysinline mustprogress ssp uwtable
define linkonce_odr void @_ZNSt16allocator_traitsISaIN6open3d8geometry9TSDFVoxelEEE10deallocateERS3_PS2_m(ptr noundef nonnull align 1 dereferenceable(1) %0, ptr noundef %1, i64 noundef %2) #8 comdat align 2 {
  %4 = alloca ptr, align 8
  %5 = alloca ptr, align 8
  %6 = alloca i64, align 8
  store ptr %0, ptr %4, align 8, !tbaa !147
  store ptr %1, ptr %5, align 8, !tbaa !162
  store i64 %2, ptr %6, align 8, !tbaa !140
  %7 = load ptr, ptr %4, align 8, !tbaa !147
  %8 = load ptr, ptr %5, align 8, !tbaa !162
  %9 = load i64, ptr %6, align 8, !tbaa !140
  call void @_ZNSt15__new_allocatorIN6open3d8geometry9TSDFVoxelEE10deallocateEPS2_m(ptr noundef nonnull align 1 dereferenceable(1) %7, ptr noundef %8, i64 noundef %9)
  ret void
}

; Function Attrs: mustprogress ssp uwtable
define linkonce_odr void @_ZNSt12_Destroy_auxILb0EE9__destroyIPN6open3d8geometry9TSDFVoxelEEEvT_S6_(ptr noundef %0, ptr noundef %1) #1 comdat align 2 {
  %3 = alloca ptr, align 8
  %4 = alloca ptr, align 8
  store ptr %0, ptr %3, align 8, !tbaa !162
  store ptr %1, ptr %4, align 8, !tbaa !162
  br label %5

5:                                                ; preds = %11, %2
  %6 = load ptr, ptr %3, align 8, !tbaa !162
  %7 = load ptr, ptr %4, align 8, !tbaa !162
  %8 = icmp ne ptr %6, %7
  br i1 %8, label %9, label %14

9:                                                ; preds = %5
  %10 = load ptr, ptr %3, align 8, !tbaa !162
  call void @_ZSt8_DestroyIN6open3d8geometry9TSDFVoxelEEvPT_(ptr noundef %10)
  br label %11

11:                                               ; preds = %9
  %12 = load ptr, ptr %3, align 8, !tbaa !162
  %13 = getelementptr inbounds nuw %"class.open3d::geometry::TSDFVoxel", ptr %12, i32 1
  store ptr %13, ptr %3, align 8, !tbaa !162
  br label %5, !llvm.loop !175

14:                                               ; preds = %5
  ret void
}

; Function Attrs: mustprogress nounwind ssp uwtable
define linkonce_odr void @_ZNSt15__new_allocatorIN6open3d8geometry9TSDFVoxelEED2Ev(ptr noundef nonnull align 1 dereferenceable(1) %0) unnamed_addr #0 comdat align 2 {
  %2 = alloca ptr, align 8
  store ptr %0, ptr %2, align 8, !tbaa !152
  ret void
}

; Function Attrs: mustprogress ssp uwtable
define linkonce_odr void @_ZNSt12_Vector_baseIN6open3d8geometry9TSDFVoxelESaIS2_EE13_M_deallocateEPS2_m(ptr noundef nonnull align 8 dereferenceable(24) %0, ptr noundef %1, i64 noundef %2) #1 comdat align 2 {
  %4 = alloca ptr, align 8
  %5 = alloca ptr, align 8
  %6 = alloca i64, align 8
  store ptr %0, ptr %4, align 8, !tbaa !143
  store ptr %1, ptr %5, align 8, !tbaa !162
  store i64 %2, ptr %6, align 8, !tbaa !140
  %7 = load ptr, ptr %4, align 8
  %8 = load ptr, ptr %5, align 8, !tbaa !162
  %9 = icmp ne ptr %8, null
  br i1 %9, label %10, label %14

10:                                               ; preds = %3
  %11 = getelementptr inbounds nuw %"struct.std::_Vector_base", ptr %7, i32 0, i32 0
  %12 = load ptr, ptr %5, align 8, !tbaa !162
  %13 = load i64, ptr %6, align 8, !tbaa !140
  call void @_ZNSt16allocator_traitsISaIN6open3d8geometry9TSDFVoxelEEE10deallocateERS3_PS2_m(ptr noundef nonnull align 1 dereferenceable(1) %11, ptr noundef %12, i64 noundef %13)
  br label %14

14:                                               ; preds = %10, %3
  ret void
}

; Function Attrs: inlinehint mustprogress ssp uwtable
define linkonce_odr void @_ZSt8_DestroyIPN6open3d8geometry9TSDFVoxelEEvT_S4_(ptr noundef %0, ptr noundef %1) #4 comdat {
  %3 = alloca ptr, align 8
  %4 = alloca ptr, align 8
  store ptr %0, ptr %3, align 8, !tbaa !162
  store ptr %1, ptr %4, align 8, !tbaa !162
  %5 = load ptr, ptr %3, align 8, !tbaa !162
  %6 = load ptr, ptr %4, align 8, !tbaa !162
  call void @_ZNSt12_Destroy_auxILb0EE9__destroyIPN6open3d8geometry9TSDFVoxelEEEvT_S6_(ptr noundef %5, ptr noundef %6)
  ret void
}

; Function Attrs: noinline noreturn nounwind ssp uwtable
define linkonce_odr hidden void @__clang_call_terminate(ptr noundef %0) #9 comdat {
  %2 = call ptr @__cxa_begin_catch(ptr %0) #32
  call void @_ZSt9terminatev() #35
  unreachable
}

; Function Attrs: mustprogress nounwind ssp uwtable
define linkonce_odr void @_ZNSt12_Vector_baseIN6open3d8geometry9TSDFVoxelESaIS2_EED2Ev(ptr noundef nonnull align 8 dereferenceable(24) %0) unnamed_addr #0 comdat align 2 personality ptr @__gxx_personality_v0 {
  %2 = alloca ptr, align 8
  store ptr %0, ptr %2, align 8, !tbaa !143
  %3 = load ptr, ptr %2, align 8
  %4 = getelementptr inbounds nuw %"struct.std::_Vector_base", ptr %3, i32 0, i32 0
  %5 = getelementptr inbounds nuw %"struct.std::_Vector_base<open3d::geometry::TSDFVoxel, std::allocator<open3d::geometry::TSDFVoxel>>::_Vector_impl_data", ptr %4, i32 0, i32 0
  %6 = load ptr, ptr %5, align 8, !tbaa !141
  %7 = getelementptr inbounds nuw %"struct.std::_Vector_base", ptr %3, i32 0, i32 0
  %8 = getelementptr inbounds nuw %"struct.std::_Vector_base<open3d::geometry::TSDFVoxel, std::allocator<open3d::geometry::TSDFVoxel>>::_Vector_impl_data", ptr %7, i32 0, i32 2
  %9 = load ptr, ptr %8, align 8, !tbaa !151
  %10 = getelementptr inbounds nuw %"struct.std::_Vector_base", ptr %3, i32 0, i32 0
  %11 = getelementptr inbounds nuw %"struct.std::_Vector_base<open3d::geometry::TSDFVoxel, std::allocator<open3d::geometry::TSDFVoxel>>::_Vector_impl_data", ptr %10, i32 0, i32 0
  %12 = load ptr, ptr %11, align 8, !tbaa !141
  %13 = ptrtoint ptr %9 to i64
  %14 = ptrtoint ptr %12 to i64
  %15 = sub i64 %13, %14
  %16 = sdiv exact i64 %15, 48
  invoke void @_ZNSt12_Vector_baseIN6open3d8geometry9TSDFVoxelESaIS2_EE13_M_deallocateEPS2_m(ptr noundef nonnull align 8 dereferenceable(24) %3, ptr noundef %6, i64 noundef %16)
          to label %17 unwind label %19

17:                                               ; preds = %1
  %18 = getelementptr inbounds nuw %"struct.std::_Vector_base", ptr %3, i32 0, i32 0
  call void @_ZNSt15__new_allocatorIN6open3d8geometry9TSDFVoxelEED2Ev(ptr noundef nonnull align 8 dereferenceable(24) %18) #32
  ret void

19:                                               ; preds = %1
  %20 = landingpad { ptr, i32 }
          catch ptr null
  %21 = extractvalue { ptr, i32 } %20, 0
  call void @__clang_call_terminate(ptr %21) #35
  unreachable
}

; Function Attrs: alwaysinline mustprogress ssp uwtable
define linkonce_odr void @_ZSt8_DestroyIPN6open3d8geometry9TSDFVoxelES2_EvT_S4_RSaIT0_E(ptr noundef %0, ptr noundef %1, ptr noundef nonnull align 1 dereferenceable(1) %2) #8 comdat {
  %4 = alloca ptr, align 8
  %5 = alloca ptr, align 8
  %6 = alloca ptr, align 8
  store ptr %0, ptr %4, align 8, !tbaa !162
  store ptr %1, ptr %5, align 8, !tbaa !162
  store ptr %2, ptr %6, align 8, !tbaa !147
  %7 = load ptr, ptr %4, align 8, !tbaa !162
  %8 = load ptr, ptr %5, align 8, !tbaa !162
  call void @_ZSt8_DestroyIPN6open3d8geometry9TSDFVoxelEEvT_S4_(ptr noundef %7, ptr noundef %8)
  ret void
}

; Function Attrs: mustprogress nounwind ssp uwtable
define linkonce_odr noundef nonnull align 1 dereferenceable(1) ptr @_ZNSt12_Vector_baseIN6open3d8geometry9TSDFVoxelESaIS2_EE19_M_get_Tp_allocatorEv(ptr noundef nonnull align 8 dereferenceable(24) %0) #0 comdat align 2 {
  %2 = alloca ptr, align 8
  store ptr %0, ptr %2, align 8, !tbaa !143
  %3 = load ptr, ptr %2, align 8
  %4 = getelementptr inbounds nuw %"struct.std::_Vector_base", ptr %3, i32 0, i32 0
  ret ptr %4
}

; Function Attrs: mustprogress nounwind ssp uwtable
define linkonce_odr void @_ZN6open3d9pipelines11integration10TSDFVolumeD2Ev(ptr noundef nonnull align 8 dereferenceable(28) %0) unnamed_addr #0 comdat align 2 {
  %2 = alloca ptr, align 8
  store ptr %0, ptr %2, align 8, !tbaa !135
  ret void
}

; Function Attrs: mustprogress nounwind ssp uwtable
define linkonce_odr void @_ZNSt6vectorIN6open3d8geometry9TSDFVoxelESaIS2_EED2Ev(ptr noundef nonnull align 8 dereferenceable(24) %0) unnamed_addr #0 comdat align 2 personality ptr @__gxx_personality_v0 {
  %2 = alloca ptr, align 8
  store ptr %0, ptr %2, align 8, !tbaa !138
  %3 = load ptr, ptr %2, align 8
  %4 = getelementptr inbounds nuw %"struct.std::_Vector_base", ptr %3, i32 0, i32 0
  %5 = getelementptr inbounds nuw %"struct.std::_Vector_base<open3d::geometry::TSDFVoxel, std::allocator<open3d::geometry::TSDFVoxel>>::_Vector_impl_data", ptr %4, i32 0, i32 0
  %6 = load ptr, ptr %5, align 8, !tbaa !141
  %7 = getelementptr inbounds nuw %"struct.std::_Vector_base", ptr %3, i32 0, i32 0
  %8 = getelementptr inbounds nuw %"struct.std::_Vector_base<open3d::geometry::TSDFVoxel, std::allocator<open3d::geometry::TSDFVoxel>>::_Vector_impl_data", ptr %7, i32 0, i32 1
  %9 = load ptr, ptr %8, align 8, !tbaa !142
  %10 = call noundef nonnull align 1 dereferenceable(1) ptr @_ZNSt12_Vector_baseIN6open3d8geometry9TSDFVoxelESaIS2_EE19_M_get_Tp_allocatorEv(ptr noundef nonnull align 8 dereferenceable(24) %3) #32
  invoke void @_ZSt8_DestroyIPN6open3d8geometry9TSDFVoxelES2_EvT_S4_RSaIT0_E(ptr noundef %6, ptr noundef %9, ptr noundef nonnull align 1 dereferenceable(1) %10)
          to label %11 unwind label %12

11:                                               ; preds = %1
  call void @_ZNSt12_Vector_baseIN6open3d8geometry9TSDFVoxelESaIS2_EED2Ev(ptr noundef nonnull align 8 dereferenceable(24) %3) #32
  ret void

12:                                               ; preds = %1
  %13 = landingpad { ptr, i32 }
          catch ptr null
  %14 = extractvalue { ptr, i32 } %13, 0
  call void @__clang_call_terminate(ptr %14) #35
  unreachable
}

; Function Attrs: mustprogress nounwind ssp uwtable
define void @_ZN6open3d9pipelines11integration17UniformTSDFVolumeD2Ev(ptr noundef nonnull align 8 dereferenceable(96) %0) unnamed_addr #0 align 2 {
  %2 = alloca ptr, align 8
  store ptr %0, ptr %2, align 8, !tbaa !4
  %3 = load ptr, ptr %2, align 8
  store ptr getelementptr inbounds inrange(-16, 48) ({ [8 x ptr] }, ptr @_ZTVN6open3d9pipelines11integration17UniformTSDFVolumeE, i32 0, i32 0, i32 2), ptr %3, align 8, !tbaa !131
  %4 = getelementptr inbounds nuw %"class.open3d::pipelines::integration::UniformTSDFVolume", ptr %3, i32 0, i32 1
  call void @_ZNSt6vectorIN6open3d8geometry9TSDFVoxelESaIS2_EED2Ev(ptr noundef nonnull align 8 dereferenceable(24) %4) #32
  call void @_ZN6open3d9pipelines11integration10TSDFVolumeD2Ev(ptr noundef nonnull align 8 dereferenceable(28) %3) #32
  ret void
}